(dp0
S'appkey'
p1
S'1021461983'
p2
sS'appsecret'
p3
S'sandbox08a64ebcb8ed8394d89c69ed3'
p4
sS'sessionKey'
p5
S'610101446343e76165e17117b7a75b35b1cca7e76e376542074082786'
p6
sS'url'
p7
S'gw.api.tbsandbox.com'
p8
s.